target datalayout = "e-m:e-p270:32:32-p271:32:32-p272:64:64-i64:64-i128:128-f80:128-n8:16:32:64-S128"
target triple = "x86_64-pc-linux-gnu"

@proto_register_etch.ett = internal global [5 x ptr] [ptr @ett_etch, ptr @ett_etch_struct, ptr @ett_etch_keyvalue, ptr @ett_etch_key, ptr @ett_etch_value], align 16
@.str.38 = private unnamed_addr constant [21 x i8] c"Apache Etch Protocol\00", align 1
@.str.39 = private unnamed_addr constant [5 x i8] c"Etch\00", align 1
@.str.40 = private unnamed_addr constant [5 x i8] c"etch\00", align 1
@proto_etch = internal global i32 0, align 4
@etch_handle = internal global ptr null, align 8
@.str.41 = private unnamed_addr constant [5 x i8] c"file\00", align 1
@.str.42 = private unnamed_addr constant [26 x i8] c"Apache Etch symbol folder\00", align 1
@.str.43 = private unnamed_addr constant [90 x i8] c"Place the hash/symbol files (generated by the Apache Etch compiler) ending with .ewh here\00", align 1
@gbl_keytab_folder = internal global ptr @.str.70, align 8

; Function Attrs: null_pointer_is_valid sspstrong uwtable
define hidden void @proto_register_etch() #0 {
  %1 = alloca ptr, align 8
  call void @llvm.lifetime.start.p0(i64 8, ptr %1) #8
  %2 = call i32 @proto_register_protocol(ptr noundef @.str.38, ptr noundef @.str.39, ptr noundef @.str.40)
  store i32 %2, ptr @proto_etch, align 4
  %3 = load i32, ptr @proto_etch, align 4
  call void @proto_register_field_array(i32 noundef %3, ptr noundef @proto_register_etch.hf, i32 noundef 19)
  call void @proto_register_subtree_array(ptr noundef @proto_register_etch.ett, i32 noundef 5)
  %4 = load i32, ptr @proto_etch, align 4
  %5 = call ptr @register_dissector(ptr noundef @.str.40, ptr noundef @dissect_etch, i32 noundef %4)
  store ptr %5, ptr @etch_handle, align 8
  call void @register_init_routine(ptr noundef @etch_dissector_init)
  %6 = load i32, ptr @proto_etch, align 4
  %7 = call ptr @prefs_register_protocol(i32 noundef %6, ptr noundef @proto_reg_handoff_etch)
  store ptr %7, ptr %1, align 8
  %8 = load ptr, ptr %1, align 8
  call void @prefs_register_directory_preference(ptr noundef %8, ptr noundef @.str.41, ptr noundef @.str.42, ptr noundef @.str.43, ptr noundef @gbl_keytab_folder)
  call void @llvm.lifetime.end.p0(i64 8, ptr %1) #8
  ret void
}