; Function Attrs: null_pointer_is_valid sspstrong uwtable
define hidden void @proto_register_etch() local_unnamed_addr #0 {
  %1 = tail call i32 @proto_register_protocol(ptr noundef nonnull @.str.38, ptr noundef nonnull @.str.39, ptr noundef nonnull @.str.40)
  store i32 %1, ptr @proto_etch, align 4
  tail call void @proto_register_field_array(i32 noundef %1, ptr noundef nonnull @proto_register_etch.hf, i32 noundef 19)
  tail call void @proto_register_subtree_array(ptr noundef nonnull @proto_register_etch.ett, i32 noundef 5)
  %2 = load i32, ptr @proto_etch, align 4
  %3 = tail call ptr @register_dissector(ptr noundef nonnull @.str.40, ptr noundef nonnull @dissect_etch, i32 noundef %2)
  store ptr %3, ptr @etch_handle, align 8
  tail call void @register_init_routine(ptr noundef nonnull @etch_dissector_init)
  %4 = load i32, ptr @proto_etch, align 4
  %5 = tail call ptr @prefs_register_protocol(i32 noundef %4, ptr noundef nonnull @proto_reg_handoff_etch)
  tail call void @prefs_register_directory_preference(ptr noundef %5, ptr noundef nonnull @.str.41, ptr noundef nonnull @.str.42, ptr noundef nonnull @.str.43, ptr noundef nonnull @gbl_keytab_folder)
  ret void
}